target datalayout = "e-m:e-p270:32:32-p271:32:32-p272:64:64-i64:64-i128:128-f80:128-n8:16:32:64-S128"
target triple = "x86_64-pc-linux-gnu"

%struct.stmm_table = type { ptr, ptr, i32, i32, i32, i32, double, ptr, ptr }
%struct.stmm_table_entry = type { ptr, ptr, ptr }

; Function Attrs: nounwind uwtable
define internal i32 @Abc_AbsInt(i32 noundef %0) #0 {
  %2 = alloca i32, align 4
  store i32 %0, ptr %2, align 4
  %3 = load i32, ptr %2, align 4
  %4 = icmp slt i32 %3, 0
  br i1 %4, label %5, label %8

5:                                                ; preds = %1
  %6 = load i32, ptr %2, align 4
  %7 = sub nsw i32 0, %6
  br label %10

8:                                                ; preds = %1
  %9 = load i32, ptr %2, align 4
  br label %10

10:                                               ; preds = %8, %5
  %11 = phi i32 [ %7, %5 ], [ %9, %8 ]
  ret i32 %11
}

; Function Attrs: nounwind uwtable
define internal i32 @rehash(ptr noundef %0) #0 {
  %2 = alloca i32, align 4
  %3 = alloca ptr, align 8
  %4 = alloca ptr, align 8
  %5 = alloca ptr, align 8
  %6 = alloca ptr, align 8
  %7 = alloca i32, align 4
  %8 = alloca i32, align 4
  %9 = alloca i32, align 4
  %10 = alloca i32, align 4
  store ptr %0, ptr %3, align 8
  %11 = load ptr, ptr %3, align 8
  %12 = getelementptr inbounds %struct.stmm_table, ptr %11, i32 0, i32 7
  %13 = load ptr, ptr %12, align 8
  store ptr %13, ptr %6, align 8
  %14 = load ptr, ptr %3, align 8
  %15 = getelementptr inbounds %struct.stmm_table, ptr %14, i32 0, i32 2
  %16 = load i32, ptr %15, align 8
  store i32 %16, ptr %8, align 4
  %17 = load ptr, ptr %3, align 8
  %18 = getelementptr inbounds %struct.stmm_table, ptr %17, i32 0, i32 3
  %19 = load i32, ptr %18, align 4
  store i32 %19, ptr %10, align 4
  %20 = load ptr, ptr %3, align 8
  %21 = getelementptr inbounds %struct.stmm_table, ptr %20, i32 0, i32 6
  %22 = load double, ptr %21, align 8
  %23 = load i32, ptr %8, align 4
  %24 = sitofp i32 %23 to double
  %25 = fmul double %22, %24
  %26 = fptosi double %25 to i32
  %27 = load ptr, ptr %3, align 8
  %28 = getelementptr inbounds %struct.stmm_table, ptr %27, i32 0, i32 2
  store i32 %26, ptr %28, align 8
  %29 = load ptr, ptr %3, align 8
  %30 = getelementptr inbounds %struct.stmm_table, ptr %29, i32 0, i32 2
  %31 = load i32, ptr %30, align 8
  %32 = srem i32 %31, 2
  %33 = icmp eq i32 %32, 0
  br i1 %33, label %34, label %39

34:                                               ; preds = %1
  %35 = load ptr, ptr %3, align 8
  %36 = getelementptr inbounds %struct.stmm_table, ptr %35, i32 0, i32 2
  %37 = load i32, ptr %36, align 8
  %38 = add nsw i32 %37, 1
  store i32 %38, ptr %36, align 8
  br label %39

39:                                               ; preds = %34, %1
  %40 = load ptr, ptr %3, align 8
  %41 = getelementptr inbounds %struct.stmm_table, ptr %40, i32 0, i32 3
  store i32 0, ptr %41, align 4
  %42 = load ptr, ptr %3, align 8
  %43 = getelementptr inbounds %struct.stmm_table, ptr %42, i32 0, i32 2
  %44 = load i32, ptr %43, align 8
  %45 = sext i32 %44 to i64
  %46 = mul i64 8, %45
  %47 = call noalias ptr @malloc(i64 noundef %46) #5
  %48 = load ptr, ptr %3, align 8
  %49 = getelementptr inbounds %struct.stmm_table, ptr %48, i32 0, i32 7
  store ptr %47, ptr %49, align 8
  %50 = load ptr, ptr %3, align 8
  %51 = getelementptr inbounds %struct.stmm_table, ptr %50, i32 0, i32 7
  %52 = load ptr, ptr %51, align 8
  %53 = icmp eq ptr %52, null
  br i1 %53, label %54, label %64

54:                                               ; preds = %39
  %55 = load ptr, ptr %6, align 8
  %56 = load ptr, ptr %3, align 8
  %57 = getelementptr inbounds %struct.stmm_table, ptr %56, i32 0, i32 7
  store ptr %55, ptr %57, align 8
  %58 = load i32, ptr %8, align 4
  %59 = load ptr, ptr %3, align 8
  %60 = getelementptr inbounds %struct.stmm_table, ptr %59, i32 0, i32 2
  store i32 %58, ptr %60, align 8
  %61 = load i32, ptr %10, align 4
  %62 = load ptr, ptr %3, align 8
  %63 = getelementptr inbounds %struct.stmm_table, ptr %62, i32 0, i32 3
  store i32 %61, ptr %63, align 4
  store i32 -10000, ptr %2, align 4
  br label %178

64:                                               ; preds = %39
  store i32 0, ptr %7, align 4
  br label %65

65:                                               ; preds = %78, %64
  %66 = load i32, ptr %7, align 4
  %67 = load ptr, ptr %3, align 8
  %68 = getelementptr inbounds %struct.stmm_table, ptr %67, i32 0, i32 2
  %69 = load i32, ptr %68, align 8
  %70 = icmp slt i32 %66, %69
  br i1 %70, label %71, label %81

71:                                               ; preds = %65
  %72 = load ptr, ptr %3, align 8
  %73 = getelementptr inbounds %struct.stmm_table, ptr %72, i32 0, i32 7
  %74 = load ptr, ptr %73, align 8
  %75 = load i32, ptr %7, align 4
  %76 = sext i32 %75 to i64
  %77 = getelementptr inbounds ptr, ptr %74, i64 %76
  store ptr null, ptr %77, align 8
  br label %78

78:                                               ; preds = %71
  %79 = load i32, ptr %7, align 4
  %80 = add nsw i32 %79, 1
  store i32 %80, ptr %7, align 4
  br label %65, !llvm.loop !10

81:                                               ; preds = %65
  store i32 0, ptr %7, align 4
  br label %82

82:                                               ; preds = %168, %81
  %83 = load i32, ptr %7, align 4
  %84 = load i32, ptr %8, align 4
  %85 = icmp slt i32 %83, %84
  br i1 %85, label %86, label %171

86:                                               ; preds = %82
  %87 = load ptr, ptr %6, align 8
  %88 = load i32, ptr %7, align 4
  %89 = sext i32 %88 to i64
  %90 = getelementptr inbounds ptr, ptr %87, i64 %89
  %91 = load ptr, ptr %90, align 8
  store ptr %91, ptr %4, align 8
  br label %92

92:                                               ; preds = %144, %86
  %93 = load ptr, ptr %4, align 8
  %94 = icmp ne ptr %93, null
  br i1 %94, label %95, label %167

95:                                               ; preds = %92
  %96 = load ptr, ptr %4, align 8
  %97 = getelementptr inbounds %struct.stmm_table_entry, ptr %96, i32 0, i32 2
  %98 = load ptr, ptr %97, align 8
  store ptr %98, ptr %5, align 8
  %99 = load ptr, ptr %3, align 8
  %100 = getelementptr inbounds %struct.stmm_table, ptr %99, i32 0, i32 1
  %101 = load ptr, ptr %100, align 8
  %102 = icmp eq ptr %101, @stmm_ptrhash
  br i1 %102, label %103, label %115

103:                                              ; preds = %95
  %104 = load ptr, ptr %4, align 8
  %105 = getelementptr inbounds %struct.stmm_table_entry, ptr %104, i32 0, i32 0
  %106 = load ptr, ptr %105, align 8
  %107 = ptrtoint ptr %106 to i64
  %108 = lshr i64 %107, 2
  %109 = load ptr, ptr %3, align 8
  %110 = getelementptr inbounds %struct.stmm_table, ptr %109, i32 0, i32 2
  %111 = load i32, ptr %110, align 8
  %112 = sext i32 %111 to i64
  %113 = urem i64 %108, %112
  %114 = trunc i64 %113 to i32
  br label %144

115:                                              ; preds = %95
  %116 = load ptr, ptr %3, align 8
  %117 = getelementptr inbounds %struct.stmm_table, ptr %116, i32 0, i32 1
  %118 = load ptr, ptr %117, align 8
  %119 = icmp eq ptr %118, @stmm_numhash
  br i1 %119, label %120, label %131

120:                                              ; preds = %115
  %121 = load ptr, ptr %4, align 8
  %122 = getelementptr inbounds %struct.stmm_table_entry, ptr %121, i32 0, i32 0
  %123 = load ptr, ptr %122, align 8
  %124 = ptrtoint ptr %123 to i64
  %125 = trunc i64 %124 to i32
  %126 = call i32 @Abc_AbsInt(i32 noundef %125)
  %127 = load ptr, ptr %3, align 8
  %128 = getelementptr inbounds %struct.stmm_table, ptr %127, i32 0, i32 2
  %129 = load i32, ptr %128, align 8
  %130 = srem i32 %126, %129
  br label %142

131:                                              ; preds = %115
  %132 = load ptr, ptr %3, align 8
  %133 = getelementptr inbounds %struct.stmm_table, ptr %132, i32 0, i32 1
  %134 = load ptr, ptr %133, align 8
  %135 = load ptr, ptr %4, align 8
  %136 = getelementptr inbounds %struct.stmm_table_entry, ptr %135, i32 0, i32 0
  %137 = load ptr, ptr %136, align 8
  %138 = load ptr, ptr %3, align 8
  %139 = getelementptr inbounds %struct.stmm_table, ptr %138, i32 0, i32 2
  %140 = load i32, ptr %139, align 8
  %141 = call i32 %134(ptr noundef %137, i32 noundef %140)
  br label %142

142:                                              ; preds = %131, %120
  %143 = phi i32 [ %130, %120 ], [ %141, %131 ]
  br label %144

144:                                              ; preds = %142, %103
  %145 = phi i32 [ %114, %103 ], [ %143, %142 ]
  store i32 %145, ptr %9, align 4
  %146 = load ptr, ptr %3, align 8
  %147 = getelementptr inbounds %struct.stmm_table, ptr %146, i32 0, i32 7
  %148 = load ptr, ptr %147, align 8
  %149 = load i32, ptr %9, align 4
  %150 = sext i32 %149 to i64
  %151 = getelementptr inbounds ptr, ptr %148, i64 %150
  %152 = load ptr, ptr %151, align 8
  %153 = load ptr, ptr %4, align 8
  %154 = getelementptr inbounds %struct.stmm_table_entry, ptr %153, i32 0, i32 2
  store ptr %152, ptr %154, align 8
  %155 = load ptr, ptr %4, align 8
  %156 = load ptr, ptr %3, align 8
  %157 = getelementptr inbounds %struct.stmm_table, ptr %156, i32 0, i32 7
  %158 = load ptr, ptr %157, align 8
  %159 = load i32, ptr %9, align 4
  %160 = sext i32 %159 to i64
  %161 = getelementptr inbounds ptr, ptr %158, i64 %160
  store ptr %155, ptr %161, align 8
  %162 = load ptr, ptr %3, align 8
  %163 = getelementptr inbounds %struct.stmm_table, ptr %162, i32 0, i32 3
  %164 = load i32, ptr %163, align 4
  %165 = add nsw i32 %164, 1
  store i32 %165, ptr %163, align 4
  %166 = load ptr, ptr %5, align 8
  store ptr %166, ptr %4, align 8
  br label %92, !llvm.loop !11

167:                                              ; preds = %92
  br label %168

168:                                              ; preds = %167
  %169 = load i32, ptr %7, align 4
  %170 = add nsw i32 %169, 1
  store i32 %170, ptr %7, align 4
  br label %82, !llvm.loop !12

171:                                              ; preds = %82
  %172 = load ptr, ptr %6, align 8
  %173 = icmp ne ptr %172, null
  br i1 %173, label %174, label %176

174:                                              ; preds = %171
  %175 = load ptr, ptr %6, align 8
  call void @free(ptr noundef %175) #6
  store ptr null, ptr %6, align 8
  br label %177

176:                                              ; preds = %171
  br label %177

177:                                              ; preds = %176, %174
  store i32 1, ptr %2, align 4
  br label %178

178:                                              ; preds = %177, %54
  %179 = load i32, ptr %2, align 4
  ret i32 %179
}