; Function Attrs: nounwind uwtable
define internal fastcc range(i32 -10000, 2) i32 @rehash(ptr noundef captures(none) %0) unnamed_addr #0 {
  %2 = getelementptr inbounds nuw i8, ptr %0, i64 40
  %3 = load ptr, ptr %2, align 8
  %4 = getelementptr inbounds nuw i8, ptr %0, i64 16
  %5 = load i32, ptr %4, align 8
  %6 = getelementptr inbounds nuw i8, ptr %0, i64 20
  %7 = load i32, ptr %6, align 4
  %8 = getelementptr inbounds nuw i8, ptr %0, i64 32
  %9 = load double, ptr %8, align 8
  %10 = sitofp i32 %5 to double
  %11 = fmul double %9, %10
  %12 = fptosi double %11 to i32
  %spec.select = or i32 %12, 1
  store i32 %spec.select, ptr %4, align 8
  store i32 0, ptr %6, align 4
  %13 = sext i32 %spec.select to i64
  %14 = shl nsw i64 %13, 3
  %15 = tail call noalias ptr @malloc(i64 noundef %14) #12
  store ptr %15, ptr %2, align 8
  %16 = icmp eq ptr %15, null
  br i1 %16, label %18, label %.preheader54

.preheader54:                                     ; preds = %1
  %17 = icmp sgt i32 %12, -1
  br i1 %17, label %.lr.ph, label %.preheader

18:                                               ; preds = %1
  store ptr %3, ptr %2, align 8
  store i32 %5, ptr %4, align 8
  store i32 %7, ptr %6, align 4
  br label %64

.preheader:                                       ; preds = %.lr.ph, %.preheader54
  %19 = icmp sgt i32 %5, 0
  br i1 %19, label %.lr.ph60, label %._crit_edge61

.lr.ph60:                                         ; preds = %.preheader
  %20 = getelementptr inbounds nuw i8, ptr %0, i64 8
  %wide.trip.count = zext nneg i32 %5 to i64
  br label %26

.lr.ph:                                           ; preds = %.preheader54, %.lr.ph
  %indvars.iv = phi i64 [ %indvars.iv.next, %.lr.ph ], [ 0, %.preheader54 ]
  %21 = load ptr, ptr %2, align 8
  %22 = getelementptr inbounds nuw ptr, ptr %21, i64 %indvars.iv
  store ptr null, ptr %22, align 8
  %indvars.iv.next = add nuw nsw i64 %indvars.iv, 1
  %23 = load i32, ptr %4, align 8
  %24 = sext i32 %23 to i64
  %25 = icmp slt i64 %indvars.iv.next, %24
  br i1 %25, label %.lr.ph, label %.preheader, !llvm.loop !9

26:                                               ; preds = %.lr.ph60, %._crit_edge
  %indvars.iv63 = phi i64 [ 0, %.lr.ph60 ], [ %indvars.iv.next64, %._crit_edge ]
  %27 = getelementptr inbounds nuw ptr, ptr %3, i64 %indvars.iv63
  %28 = load ptr, ptr %27, align 8
  %.not5356 = icmp eq ptr %28, null
  br i1 %.not5356, label %._crit_edge, label %.lr.ph58

.lr.ph58:                                         ; preds = %26, %53
  %.04957 = phi ptr [ %30, %53 ], [ %28, %26 ]
  %29 = getelementptr inbounds nuw i8, ptr %.04957, i64 16
  %30 = load ptr, ptr %29, align 8
  %31 = load ptr, ptr %20, align 8
  %32 = icmp eq ptr %31, @stmm_ptrhash
  br i1 %32, label %33, label %41

33:                                               ; preds = %.lr.ph58
  %34 = load ptr, ptr %.04957, align 8
  %35 = ptrtoint ptr %34 to i64
  %36 = lshr i64 %35, 2
  %37 = load i32, ptr %4, align 8
  %38 = sext i32 %37 to i64
  %39 = urem i64 %36, %38
  %40 = trunc i64 %39 to i32
  br label %53

41:                                               ; preds = %.lr.ph58
  %42 = icmp eq ptr %31, @stmm_numhash
  %43 = load ptr, ptr %.04957, align 8
  br i1 %42, label %44, label %50

44:                                               ; preds = %41
  %45 = ptrtoint ptr %43 to i64
  %46 = trunc i64 %45 to i32
  %47 = tail call range(i32 0, -2147483648) i32 @llvm.abs.i32(i32 %46, i1 true)
  %48 = load i32, ptr %4, align 8
  %49 = srem i32 %47, %48
  br label %53

50:                                               ; preds = %41
  %51 = load i32, ptr %4, align 8
  %52 = tail call i32 %31(ptr noundef %43, i32 noundef %51) #13
  br label %53

53:                                               ; preds = %44, %50, %33
  %54 = phi i32 [ %40, %33 ], [ %49, %44 ], [ %52, %50 ]
  %55 = load ptr, ptr %2, align 8
  %56 = sext i32 %54 to i64
  %57 = getelementptr inbounds ptr, ptr %55, i64 %56
  %58 = load ptr, ptr %57, align 8
  store ptr %58, ptr %29, align 8
  %59 = load ptr, ptr %2, align 8
  %60 = getelementptr inbounds ptr, ptr %59, i64 %56
  store ptr %.04957, ptr %60, align 8
  %61 = load i32, ptr %6, align 4
  %62 = add nsw i32 %61, 1
  store i32 %62, ptr %6, align 4
  %.not53 = icmp eq ptr %30, null
  br i1 %.not53, label %._crit_edge, label %.lr.ph58, !llvm.loop !10

._crit_edge:                                      ; preds = %53, %26
  %indvars.iv.next64 = add nuw nsw i64 %indvars.iv63, 1
  %exitcond.not = icmp eq i64 %indvars.iv.next64, %wide.trip.count
  br i1 %exitcond.not, label %._crit_edge61, label %26, !llvm.loop !11

._crit_edge61:                                    ; preds = %._crit_edge, %.preheader
  %.not = icmp eq ptr %3, null
  br i1 %.not, label %64, label %63

63:                                               ; preds = %._crit_edge61
  tail call void @free(ptr noundef nonnull %3) #13
  br label %64

64:                                               ; preds = %63, %._crit_edge61, %18
  %.0 = phi i32 [ -10000, %18 ], [ 1, %._crit_edge61 ], [ 1, %63 ]
  ret i32 %.0
}